; Function Attrs: mustprogress nounwind uwtable
define hidden void @_ZN16JfrThreadSampler6enrollEv(ptr noundef nonnull align 8 dereferenceable(993) %0) local_unnamed_addr #0 align 2 {
  %2 = getelementptr inbounds i8, ptr %0, i64 992
  %3 = load volatile i8, ptr %2, align 8
  %4 = trunc i8 %3 to i1
  br i1 %4, label %5, label %10

5:                                                ; preds = %1
  %6 = load volatile ptr, ptr getelementptr inbounds (i8, ptr @_ZN16LogTagSetMappingILN6LogTag4typeE64ELS1_0ELS1_0ELS1_0ELS1_0ELS1_0EE7_tagsetE, i64 48), align 8
  %.not = icmp eq ptr %6, null
  br i1 %.not, label %8, label %7

7:                                                ; preds = %5
  tail call void (ptr, ...) @_ZN7LogImplILN6LogTag4typeE64ELS1_0ELS1_0ELS1_0ELS1_0ELS1_0EE5writeILN8LogLevel4typeE1EEEvPKcz(ptr noundef nonnull @.str.9)
  br label %8

8:                                                ; preds = %5, %7
  %9 = getelementptr inbounds i8, ptr %0, i64 896
  tail call void @_ZN14PosixSemaphore6signalEj(ptr noundef nonnull align 8 dereferenceable(32) %9, i32 noundef 1) #18
  store volatile i8 0, ptr %2, align 8
  br label %10

10:                                               ; preds = %8, %1
  ret void
}